target datalayout = "e-m:e-p270:32:32-p271:32:32-p272:64:64-i64:64-i128:128-f80:128-n8:16:32:64-S128"
target triple = "x86_64-pc-linux-gnu"

%"struct.duckdb_libpgquery::PGList" = type { i32, i32, ptr, ptr }
%"struct.duckdb_libpgquery::PGListCell" = type { %union.anon, ptr }
%union.anon = type { ptr }

; Function Attrs: mustprogress uwtable
define internal noundef ptr @_ZN17duckdb_libpgqueryL8new_listENS_9PGNodeTagE(i32 noundef %0) #0 {
  %2 = alloca i32, align 4
  %3 = alloca ptr, align 8
  %4 = alloca ptr, align 8
  store i32 %0, ptr %2, align 4, !tbaa !15
  call void @llvm.lifetime.start.p0(i64 8, ptr %3) #6
  call void @llvm.lifetime.start.p0(i64 8, ptr %4) #6
  %5 = call noundef ptr @_ZN17duckdb_libpgquery6pallocEm(i64 noundef 16)
  store ptr %5, ptr %4, align 8, !tbaa !16
  %6 = load ptr, ptr %4, align 8, !tbaa !16
  %7 = getelementptr inbounds nuw %"struct.duckdb_libpgquery::PGListCell", ptr %6, i32 0, i32 1
  store ptr null, ptr %7, align 8, !tbaa !17
  %8 = call noundef ptr @_ZN17duckdb_libpgquery6pallocEm(i64 noundef 24)
  store ptr %8, ptr %3, align 8, !tbaa !3
  %9 = load i32, ptr %2, align 4, !tbaa !15
  %10 = load ptr, ptr %3, align 8, !tbaa !3
  %11 = getelementptr inbounds nuw %"struct.duckdb_libpgquery::PGList", ptr %10, i32 0, i32 0
  store i32 %9, ptr %11, align 8, !tbaa !19
  %12 = load ptr, ptr %3, align 8, !tbaa !3
  %13 = getelementptr inbounds nuw %"struct.duckdb_libpgquery::PGList", ptr %12, i32 0, i32 1
  store i32 1, ptr %13, align 4, !tbaa !20
  %14 = load ptr, ptr %4, align 8, !tbaa !16
  %15 = load ptr, ptr %3, align 8, !tbaa !3
  %16 = getelementptr inbounds nuw %"struct.duckdb_libpgquery::PGList", ptr %15, i32 0, i32 2
  store ptr %14, ptr %16, align 8, !tbaa !21
  %17 = load ptr, ptr %4, align 8, !tbaa !16
  %18 = load ptr, ptr %3, align 8, !tbaa !3
  %19 = getelementptr inbounds nuw %"struct.duckdb_libpgquery::PGList", ptr %18, i32 0, i32 3
  store ptr %17, ptr %19, align 8, !tbaa !9
  %20 = load ptr, ptr %3, align 8, !tbaa !3
  call void @llvm.lifetime.end.p0(i64 8, ptr %4) #6
  call void @llvm.lifetime.end.p0(i64 8, ptr %3) #6
  ret ptr %20
}

; Function Attrs: mustprogress uwtable
define hidden noundef ptr @_ZN17duckdb_libpgquery9list_copyEPKNS_6PGListE(ptr noundef %0) #0 {
  %2 = alloca ptr, align 8
  %3 = alloca ptr, align 8
  %4 = alloca ptr, align 8
  %5 = alloca ptr, align 8
  %6 = alloca ptr, align 8
  %7 = alloca i32, align 4
  %8 = alloca ptr, align 8
  store ptr %0, ptr %3, align 8, !tbaa !3
  call void @llvm.lifetime.start.p0(i64 8, ptr %4) #6
  call void @llvm.lifetime.start.p0(i64 8, ptr %5) #6
  call void @llvm.lifetime.start.p0(i64 8, ptr %6) #6
  %9 = load ptr, ptr %3, align 8, !tbaa !3
  %10 = icmp eq ptr %9, null
  br i1 %10, label %11, label %12

11:                                               ; preds = %1
  store ptr null, ptr %2, align 8
  store i32 1, ptr %7, align 4
  br label %61

12:                                               ; preds = %1
  %13 = load ptr, ptr %3, align 8, !tbaa !3
  %14 = getelementptr inbounds nuw %"struct.duckdb_libpgquery::PGList", ptr %13, i32 0, i32 0
  %15 = load i32, ptr %14, align 8, !tbaa !19
  %16 = call noundef ptr @_ZN17duckdb_libpgqueryL8new_listENS_9PGNodeTagE(i32 noundef %15)
  store ptr %16, ptr %4, align 8, !tbaa !3
  %17 = load ptr, ptr %3, align 8, !tbaa !3
  %18 = getelementptr inbounds nuw %"struct.duckdb_libpgquery::PGList", ptr %17, i32 0, i32 1
  %19 = load i32, ptr %18, align 4, !tbaa !20
  %20 = load ptr, ptr %4, align 8, !tbaa !3
  %21 = getelementptr inbounds nuw %"struct.duckdb_libpgquery::PGList", ptr %20, i32 0, i32 1
  store i32 %19, ptr %21, align 4, !tbaa !20
  %22 = load ptr, ptr %3, align 8, !tbaa !3
  %23 = getelementptr inbounds nuw %"struct.duckdb_libpgquery::PGList", ptr %22, i32 0, i32 2
  %24 = load ptr, ptr %23, align 8, !tbaa !21
  %25 = getelementptr inbounds nuw %"struct.duckdb_libpgquery::PGListCell", ptr %24, i32 0, i32 0
  %26 = load ptr, ptr %4, align 8, !tbaa !3
  %27 = getelementptr inbounds nuw %"struct.duckdb_libpgquery::PGList", ptr %26, i32 0, i32 2
  %28 = load ptr, ptr %27, align 8, !tbaa !21
  %29 = getelementptr inbounds nuw %"struct.duckdb_libpgquery::PGListCell", ptr %28, i32 0, i32 0
  call void @llvm.memcpy.p0.p0.i64(ptr align 8 %29, ptr align 8 %25, i64 8, i1 false), !tbaa.struct !31
  %30 = load ptr, ptr %4, align 8, !tbaa !3
  %31 = getelementptr inbounds nuw %"struct.duckdb_libpgquery::PGList", ptr %30, i32 0, i32 2
  %32 = load ptr, ptr %31, align 8, !tbaa !21
  store ptr %32, ptr %5, align 8, !tbaa !16
  %33 = load ptr, ptr %3, align 8, !tbaa !3
  %34 = getelementptr inbounds nuw %"struct.duckdb_libpgquery::PGList", ptr %33, i32 0, i32 2
  %35 = load ptr, ptr %34, align 8, !tbaa !21
  %36 = getelementptr inbounds nuw %"struct.duckdb_libpgquery::PGListCell", ptr %35, i32 0, i32 1
  %37 = load ptr, ptr %36, align 8, !tbaa !17
  store ptr %37, ptr %6, align 8, !tbaa !16
  br label %38

38:                                               ; preds = %41, %12
  %39 = load ptr, ptr %6, align 8, !tbaa !16
  %40 = icmp ne ptr %39, null
  br i1 %40, label %41, label %54

41:                                               ; preds = %38
  call void @llvm.lifetime.start.p0(i64 8, ptr %8) #6
  %42 = call noundef ptr @_ZN17duckdb_libpgquery6pallocEm(i64 noundef 16)
  store ptr %42, ptr %8, align 8, !tbaa !16
  %43 = load ptr, ptr %6, align 8, !tbaa !16
  %44 = getelementptr inbounds nuw %"struct.duckdb_libpgquery::PGListCell", ptr %43, i32 0, i32 0
  %45 = load ptr, ptr %8, align 8, !tbaa !16
  %46 = getelementptr inbounds nuw %"struct.duckdb_libpgquery::PGListCell", ptr %45, i32 0, i32 0
  call void @llvm.memcpy.p0.p0.i64(ptr align 8 %46, ptr align 8 %44, i64 8, i1 false), !tbaa.struct !31
  %47 = load ptr, ptr %8, align 8, !tbaa !16
  %48 = load ptr, ptr %5, align 8, !tbaa !16
  %49 = getelementptr inbounds nuw %"struct.duckdb_libpgquery::PGListCell", ptr %48, i32 0, i32 1
  store ptr %47, ptr %49, align 8, !tbaa !17
  %50 = load ptr, ptr %8, align 8, !tbaa !16
  store ptr %50, ptr %5, align 8, !tbaa !16
  %51 = load ptr, ptr %6, align 8, !tbaa !16
  %52 = getelementptr inbounds nuw %"struct.duckdb_libpgquery::PGListCell", ptr %51, i32 0, i32 1
  %53 = load ptr, ptr %52, align 8, !tbaa !17
  store ptr %53, ptr %6, align 8, !tbaa !16
  call void @llvm.lifetime.end.p0(i64 8, ptr %8) #6
  br label %38, !llvm.loop !32

54:                                               ; preds = %38
  %55 = load ptr, ptr %5, align 8, !tbaa !16
  %56 = getelementptr inbounds nuw %"struct.duckdb_libpgquery::PGListCell", ptr %55, i32 0, i32 1
  store ptr null, ptr %56, align 8, !tbaa !17
  %57 = load ptr, ptr %5, align 8, !tbaa !16
  %58 = load ptr, ptr %4, align 8, !tbaa !3
  %59 = getelementptr inbounds nuw %"struct.duckdb_libpgquery::PGList", ptr %58, i32 0, i32 3
  store ptr %57, ptr %59, align 8, !tbaa !9
  %60 = load ptr, ptr %4, align 8, !tbaa !3
  store ptr %60, ptr %2, align 8
  store i32 1, ptr %7, align 4
  br label %61

61:                                               ; preds = %54, %11
  call void @llvm.lifetime.end.p0(i64 8, ptr %6) #6
  call void @llvm.lifetime.end.p0(i64 8, ptr %5) #6
  call void @llvm.lifetime.end.p0(i64 8, ptr %4) #6
  %62 = load ptr, ptr %2, align 8
  ret ptr %62
}