; Function Attrs: mustprogress uwtable
define hidden noundef ptr @_ZN17duckdb_libpgquery9list_copyEPKNS_6PGListE(ptr noundef readonly captures(address_is_null) %0) local_unnamed_addr #0 {
  %2 = icmp eq ptr %0, null
  br i1 %2, label %22, label %3

3:                                                ; preds = %1
  %4 = load i32, ptr %0, align 8, !tbaa !9
  %5 = tail call noundef ptr @_ZN17duckdb_libpgquery6pallocEm(i64 noundef 16)
  %6 = getelementptr inbounds nuw i8, ptr %5, i64 8
  store ptr null, ptr %6, align 8, !tbaa !3
  %7 = tail call noundef ptr @_ZN17duckdb_libpgquery6pallocEm(i64 noundef 24)
  store i32 %4, ptr %7, align 8, !tbaa !9
  %8 = getelementptr inbounds nuw i8, ptr %7, i64 4
  store i32 1, ptr %8, align 4, !tbaa !13
  %9 = getelementptr inbounds nuw i8, ptr %7, i64 8
  store ptr %5, ptr %9, align 8, !tbaa !14
  %10 = getelementptr inbounds nuw i8, ptr %7, i64 16
  store ptr %5, ptr %10, align 8, !tbaa !15
  %11 = getelementptr inbounds nuw i8, ptr %0, i64 4
  %12 = load i32, ptr %11, align 4, !tbaa !13
  store i32 %12, ptr %8, align 4, !tbaa !13
  %13 = getelementptr inbounds nuw i8, ptr %0, i64 8
  %14 = load ptr, ptr %13, align 8, !tbaa !14
  %15 = load i64, ptr %14, align 8, !tbaa !16
  store i64 %15, ptr %5, align 8, !tbaa !16
  %16 = load ptr, ptr %9, align 8, !tbaa !14
  %17 = load ptr, ptr %13, align 8, !tbaa !14
  %.020.in23 = getelementptr inbounds nuw i8, ptr %17, i64 8
  %.02024 = load ptr, ptr %.020.in23, align 8, !tbaa !3
  %.not25 = icmp eq ptr %.02024, null
  br i1 %.not25, label %._crit_edge, label %.lr.ph

.lr.ph:                                           ; preds = %3, %.lr.ph
  %.02027 = phi ptr [ %.020, %.lr.ph ], [ %.02024, %3 ]
  %.02126 = phi ptr [ %18, %.lr.ph ], [ %16, %3 ]
  %18 = tail call noundef ptr @_ZN17duckdb_libpgquery6pallocEm(i64 noundef 16)
  %19 = load i64, ptr %.02027, align 8, !tbaa !16
  store i64 %19, ptr %18, align 8, !tbaa !16
  %20 = getelementptr inbounds nuw i8, ptr %.02126, i64 8
  store ptr %18, ptr %20, align 8, !tbaa !3
  %.020.in = getelementptr inbounds nuw i8, ptr %.02027, i64 8
  %.020 = load ptr, ptr %.020.in, align 8, !tbaa !3
  %.not = icmp eq ptr %.020, null
  br i1 %.not, label %._crit_edge, label %.lr.ph, !llvm.loop !22

._crit_edge:                                      ; preds = %.lr.ph, %3
  %.021.lcssa = phi ptr [ %16, %3 ], [ %18, %.lr.ph ]
  %21 = getelementptr inbounds nuw i8, ptr %.021.lcssa, i64 8
  store ptr null, ptr %21, align 8, !tbaa !3
  store ptr %.021.lcssa, ptr %10, align 8, !tbaa !15
  br label %22

22:                                               ; preds = %1, %._crit_edge
  %.0 = phi ptr [ %7, %._crit_edge ], [ null, %1 ]
  ret ptr %.0
}